target datalayout = "e-m:e-p270:32:32-p271:32:32-p272:64:64-i64:64-i128:128-f80:128-n8:16:32:64-S128"
target triple = "x86_64-pc-linux-gnu"

%"class.llvm::BinaryStreamRef" = type { %"class.llvm::BinaryStreamRefBase" }
%"class.llvm::BinaryStreamRefBase" = type { %"class.std::shared_ptr", ptr, i64, %"class.std::optional" }
%"class.std::shared_ptr" = type { %"class.std::__shared_ptr" }
%"class.std::__shared_ptr" = type { ptr, %"class.std::__shared_count" }
%"class.std::__shared_count" = type { ptr }
%"class.std::optional" = type { %"struct.std::_Optional_base" }
%"struct.std::_Optional_base" = type { %"struct.std::_Optional_payload" }
%"struct.std::_Optional_payload" = type { %"struct.std::_Optional_payload_base.base", [7 x i8] }
%"struct.std::_Optional_payload_base.base" = type <{ %"union.std::_Optional_payload_base<unsigned long>::_Storage", i8 }>
%"union.std::_Optional_payload_base<unsigned long>::_Storage" = type { i64 }
%"class.llvm::codeview::LineColumnExtractor" = type { ptr }
%"class.llvm::codeview::DebugLinesSubsectionRef" = type { %"class.llvm::codeview::DebugSubsectionRef.base", ptr, %"class.llvm::VarStreamArray" }
%"class.llvm::codeview::DebugSubsectionRef.base" = type <{ ptr, i32 }>
%"class.llvm::VarStreamArray" = type <{ %"class.llvm::BinaryStreamRef", %"class.llvm::codeview::LineColumnExtractor", i32, [4 x i8] }>
%"class.llvm::codeview::DebugSubsectionRef" = type <{ ptr, i32, [4 x i8] }>
%"struct.std::_Optional_payload_base" = type <{ %"union.std::_Optional_payload_base<unsigned long>::_Storage", i8, [7 x i8] }>

@_ZTVN4llvm8codeview23DebugLinesSubsectionRefE = linkonce_odr unnamed_addr constant { [4 x ptr] } { [4 x ptr] [ptr null, ptr null, ptr @_ZN4llvm8codeview23DebugLinesSubsectionRefD2Ev, ptr @_ZN4llvm8codeview23DebugLinesSubsectionRefD0Ev] }, comdat, align 8
@_ZTVN4llvm8codeview18DebugSubsectionRefE = external unnamed_addr constant { [4 x ptr] }, align 8

; Function Attrs: mustprogress nounwind uwtable
define linkonce_odr hidden void @_ZNSt22_Optional_payload_baseImE8_StorageImLb1EEC2Ev(ptr noundef nonnull align 8 dereferenceable(8) %0) unnamed_addr #0 comdat align 2 {
  %2 = alloca ptr, align 8
  store ptr %0, ptr %2, align 8
  ret void
}

; Function Attrs: mustprogress nounwind uwtable
define linkonce_odr hidden void @_ZNSt22_Optional_payload_baseImEC2Ev(ptr noundef nonnull align 8 dereferenceable(9) %0) unnamed_addr #0 comdat align 2 {
  %2 = alloca ptr, align 8
  store ptr %0, ptr %2, align 8
  %3 = load ptr, ptr %2, align 8
  %4 = getelementptr inbounds nuw %"struct.std::_Optional_payload_base", ptr %3, i32 0, i32 0
  call void @_ZNSt22_Optional_payload_baseImE8_StorageImLb1EEC2Ev(ptr noundef nonnull align 8 dereferenceable(8) %4) #10
  %5 = getelementptr inbounds nuw %"struct.std::_Optional_payload_base", ptr %3, i32 0, i32 1
  store i8 0, ptr %5, align 8
  ret void
}

; Function Attrs: mustprogress nounwind uwtable
define linkonce_odr hidden void @_ZNSt17_Optional_payloadImLb1ELb1ELb1EEC2Ev(ptr noundef nonnull align 8 dereferenceable(9) %0) unnamed_addr #0 comdat align 2 {
  %2 = alloca ptr, align 8
  store ptr %0, ptr %2, align 8
  %3 = load ptr, ptr %2, align 8
  call void @_ZNSt22_Optional_payload_baseImEC2Ev(ptr noundef nonnull align 8 dereferenceable(9) %3) #10
  ret void
}

; Function Attrs: mustprogress nounwind uwtable
define linkonce_odr hidden void @_ZNSt14__shared_countILN9__gnu_cxx12_Lock_policyE2EEC2Ev(ptr noundef nonnull align 8 dereferenceable(8) %0) unnamed_addr #0 comdat align 2 {
  %2 = alloca ptr, align 8
  store ptr %0, ptr %2, align 8
  %3 = load ptr, ptr %2, align 8
  %4 = getelementptr inbounds nuw %"class.std::__shared_count", ptr %3, i32 0, i32 0
  store ptr null, ptr %4, align 8
  ret void
}

; Function Attrs: mustprogress nounwind uwtable
define linkonce_odr hidden void @_ZNSt14_Optional_baseImLb1ELb1EEC2Ev(ptr noundef nonnull align 8 dereferenceable(16) %0) unnamed_addr #0 comdat align 2 {
  %2 = alloca ptr, align 8
  store ptr %0, ptr %2, align 8
  %3 = load ptr, ptr %2, align 8
  %4 = getelementptr inbounds nuw %"struct.std::_Optional_base", ptr %3, i32 0, i32 0
  call void @_ZNSt17_Optional_payloadImLb1ELb1ELb1EEC2Ev(ptr noundef nonnull align 8 dereferenceable(9) %4) #10
  ret void
}

; Function Attrs: mustprogress nounwind uwtable
define linkonce_odr hidden void @_ZNSt12__shared_ptrIN4llvm12BinaryStreamELN9__gnu_cxx12_Lock_policyE2EEC2Ev(ptr noundef nonnull align 8 dereferenceable(16) %0) unnamed_addr #0 comdat align 2 {
  %2 = alloca ptr, align 8
  store ptr %0, ptr %2, align 8
  %3 = load ptr, ptr %2, align 8
  %4 = getelementptr inbounds nuw %"class.std::__shared_ptr", ptr %3, i32 0, i32 0
  store ptr null, ptr %4, align 8
  %5 = getelementptr inbounds nuw %"class.std::__shared_ptr", ptr %3, i32 0, i32 1
  call void @_ZNSt14__shared_countILN9__gnu_cxx12_Lock_policyE2EEC2Ev(ptr noundef nonnull align 8 dereferenceable(8) %5) #10
  ret void
}

; Function Attrs: mustprogress nounwind uwtable
define linkonce_odr hidden void @_ZNSt8optionalImEC2Ev(ptr noundef nonnull align 8 dereferenceable(16) %0) unnamed_addr #0 comdat align 2 {
  %2 = alloca ptr, align 8
  store ptr %0, ptr %2, align 8
  %3 = load ptr, ptr %2, align 8
  call void @_ZNSt14_Optional_baseImLb1ELb1EEC2Ev(ptr noundef nonnull align 8 dereferenceable(16) %3) #10
  ret void
}

; Function Attrs: mustprogress nounwind uwtable
define linkonce_odr hidden void @_ZNSt10shared_ptrIN4llvm12BinaryStreamEEC2Ev(ptr noundef nonnull align 8 dereferenceable(16) %0) unnamed_addr #0 comdat align 2 {
  %2 = alloca ptr, align 8
  store ptr %0, ptr %2, align 8
  %3 = load ptr, ptr %2, align 8
  call void @_ZNSt12__shared_ptrIN4llvm12BinaryStreamELN9__gnu_cxx12_Lock_policyE2EEC2Ev(ptr noundef nonnull align 8 dereferenceable(16) %3) #10
  ret void
}

; Function Attrs: mustprogress nounwind uwtable
define linkonce_odr hidden void @_ZN4llvm19BinaryStreamRefBaseINS_15BinaryStreamRefENS_12BinaryStreamEEC2Ev(ptr noundef nonnull align 8 dereferenceable(48) %0) unnamed_addr #0 comdat align 2 {
  %2 = alloca ptr, align 8
  store ptr %0, ptr %2, align 8
  %3 = load ptr, ptr %2, align 8
  %4 = getelementptr inbounds nuw %"class.llvm::BinaryStreamRefBase", ptr %3, i32 0, i32 0
  call void @_ZNSt10shared_ptrIN4llvm12BinaryStreamEEC2Ev(ptr noundef nonnull align 8 dereferenceable(16) %4) #10
  %5 = getelementptr inbounds nuw %"class.llvm::BinaryStreamRefBase", ptr %3, i32 0, i32 1
  store ptr null, ptr %5, align 8
  %6 = getelementptr inbounds nuw %"class.llvm::BinaryStreamRefBase", ptr %3, i32 0, i32 2
  store i64 0, ptr %6, align 8
  %7 = getelementptr inbounds nuw %"class.llvm::BinaryStreamRefBase", ptr %3, i32 0, i32 3
  call void @_ZNSt8optionalImEC2Ev(ptr noundef nonnull align 8 dereferenceable(16) %7) #10
  ret void
}

; Function Attrs: mustprogress nounwind uwtable
define linkonce_odr hidden void @_ZN4llvm8codeview19LineColumnExtractorC2Ev(ptr noundef nonnull align 8 dereferenceable(8) %0) unnamed_addr #0 comdat align 2 {
  %2 = alloca ptr, align 8
  store ptr %0, ptr %2, align 8
  %3 = load ptr, ptr %2, align 8
  %4 = getelementptr inbounds nuw %"class.llvm::codeview::LineColumnExtractor", ptr %3, i32 0, i32 0
  store ptr null, ptr %4, align 8
  ret void
}

; Function Attrs: mustprogress nounwind uwtable
define linkonce_odr hidden void @_ZN4llvm15BinaryStreamRefC2Ev(ptr noundef nonnull align 8 dereferenceable(48) %0) unnamed_addr #0 comdat align 2 {
  %2 = alloca ptr, align 8
  store ptr %0, ptr %2, align 8
  %3 = load ptr, ptr %2, align 8
  call void @_ZN4llvm19BinaryStreamRefBaseINS_15BinaryStreamRefENS_12BinaryStreamEEC2Ev(ptr noundef nonnull align 8 dereferenceable(48) %3) #10
  ret void
}

; Function Attrs: mustprogress nounwind uwtable
define linkonce_odr hidden void @_ZN4llvm14VarStreamArrayINS_8codeview15LineColumnEntryENS1_19LineColumnExtractorEEC2Ev(ptr noundef nonnull align 8 dereferenceable(60) %0) unnamed_addr #0 comdat align 2 {
  %2 = alloca ptr, align 8
  store ptr %0, ptr %2, align 8
  %3 = load ptr, ptr %2, align 8
  %4 = getelementptr inbounds nuw %"class.llvm::VarStreamArray", ptr %3, i32 0, i32 0
  call void @_ZN4llvm15BinaryStreamRefC2Ev(ptr noundef nonnull align 8 dereferenceable(48) %4) #10
  %5 = getelementptr inbounds nuw %"class.llvm::VarStreamArray", ptr %3, i32 0, i32 1
  call void @_ZN4llvm8codeview19LineColumnExtractorC2Ev(ptr noundef nonnull align 8 dereferenceable(8) %5) #10
  %6 = getelementptr inbounds nuw %"class.llvm::VarStreamArray", ptr %3, i32 0, i32 2
  store i32 0, ptr %6, align 8
  ret void
}

; Function Attrs: mustprogress nounwind uwtable
define linkonce_odr hidden void @_ZN4llvm8codeview18DebugSubsectionRefC2ENS0_19DebugSubsectionKindE(ptr noundef nonnull align 8 dereferenceable(12) %0, i32 noundef %1) unnamed_addr #0 comdat align 2 {
  %3 = alloca ptr, align 8
  %4 = alloca i32, align 4
  store ptr %0, ptr %3, align 8
  store i32 %1, ptr %4, align 4
  %5 = load ptr, ptr %3, align 8
  store ptr getelementptr inbounds inrange(-16, 16) ({ [4 x ptr] }, ptr @_ZTVN4llvm8codeview18DebugSubsectionRefE, i32 0, i32 0, i32 2), ptr %5, align 8
  %6 = getelementptr inbounds nuw %"class.llvm::codeview::DebugSubsectionRef", ptr %5, i32 0, i32 1
  %7 = load i32, ptr %4, align 4
  store i32 %7, ptr %6, align 8
  ret void
}

; Function Attrs: mustprogress nounwind uwtable
define dso_local void @_ZN4llvm8codeview23DebugLinesSubsectionRefC2Ev(ptr noundef nonnull align 8 dereferenceable(88) %0) unnamed_addr #0 align 2 {
  %2 = alloca ptr, align 8
  store ptr %0, ptr %2, align 8
  %3 = load ptr, ptr %2, align 8
  call void @_ZN4llvm8codeview18DebugSubsectionRefC2ENS0_19DebugSubsectionKindE(ptr noundef nonnull align 8 dereferenceable(12) %3, i32 noundef 242)
  store ptr getelementptr inbounds inrange(-16, 16) ({ [4 x ptr] }, ptr @_ZTVN4llvm8codeview23DebugLinesSubsectionRefE, i32 0, i32 0, i32 2), ptr %3, align 8
  %4 = getelementptr inbounds nuw %"class.llvm::codeview::DebugLinesSubsectionRef", ptr %3, i32 0, i32 1
  store ptr null, ptr %4, align 8
  %5 = getelementptr inbounds nuw %"class.llvm::codeview::DebugLinesSubsectionRef", ptr %3, i32 0, i32 2
  call void @_ZN4llvm14VarStreamArrayINS_8codeview15LineColumnEntryENS1_19LineColumnExtractorEEC2Ev(ptr noundef nonnull align 8 dereferenceable(60) %5) #10
  ret void
}