; Function Attrs: mustprogress nofree norecurse nosync nounwind willreturn memory(argmem: write) uwtable
define dso_local void @_ZN4llvm8codeview23DebugLinesSubsectionRefC2Ev(ptr nocapture noundef nonnull writeonly align 8 dereferenceable(88) %0) unnamed_addr #3 align 2 {
  %2 = getelementptr inbounds nuw i8, ptr %0, i64 8
  store i32 242, ptr %2, align 8
  store ptr getelementptr inbounds inrange(-16, 16) (i8, ptr @_ZTVN4llvm8codeview23DebugLinesSubsectionRefE, i64 16), ptr %0, align 8
  %3 = getelementptr inbounds nuw i8, ptr %0, i64 16
  %4 = getelementptr inbounds i8, ptr %0, i64 64
  store i8 0, ptr %4, align 8
  %5 = getelementptr inbounds i8, ptr %0, i64 72
  store ptr null, ptr %5, align 8
  %6 = getelementptr inbounds i8, ptr %0, i64 80
  store i32 0, ptr %6, align 8
  tail call void @llvm.memset.p0.i64(ptr noundef nonnull align 8 dereferenceable(40) %3, i8 0, i64 40, i1 false)
  ret void
}